; ModuleID = 'source-C-CXX/59/778.c'
source_filename = "source-C-CXX/59/778.c"
target datalayout = "e-m:e-p270:32:32-p271:32:32-p272:64:64-i64:64-f80:128-n8:16:32:64-S128"
target triple = "x86_64-pc-linux-gnu"

@.str = private unnamed_addr constant [3 x i8] c"%d\00", align 1
@.str.1 = private unnamed_addr constant [7 x i8] c"%d %d\0A\00", align 1
@.str.2 = private unnamed_addr constant [6 x i8] c"empty\00", align 1

; Function Attrs: nofree norecurse nosync nounwind readnone sspstrong uwtable
define dso_local i32 @S(i32 %0) local_unnamed_addr #0 {
  %2 = icmp sgt i32 %0, 2
  br i1 %2, label %3, label %39

3:                                                ; preds = %1
  %4 = and i32 %0, 1
  %5 = icmp eq i32 %0, 3
  br i1 %5, label %25, label %6

6:                                                ; preds = %3
  %7 = add i32 %0, -2
  %8 = and i32 %7, -2
  br label %9

9:                                                ; preds = %9, %6
  %10 = phi i32 [ 0, %6 ], [ %21, %9 ]
  %11 = phi i32 [ 2, %6 ], [ %22, %9 ]
  %12 = phi i32 [ %8, %6 ], [ %23, %9 ]
  %13 = srem i32 %0, %11
  %14 = icmp eq i32 %13, 0
  %15 = zext i1 %14 to i32
  %16 = add nuw nsw i32 %10, %15
  %17 = or i32 %11, 1
  %18 = srem i32 %0, %17
  %19 = icmp eq i32 %18, 0
  %20 = zext i1 %19 to i32
  %21 = add nuw nsw i32 %16, %20
  %22 = add nuw nsw i32 %11, 2
  %23 = add i32 %12, -2
  %24 = icmp eq i32 %23, 0
  br i1 %24, label %25, label %9, !llvm.loop !5

25:                                               ; preds = %9, %3
  %26 = phi i32 [ undef, %3 ], [ %21, %9 ]
  %27 = phi i32 [ 0, %3 ], [ %21, %9 ]
  %28 = phi i32 [ 2, %3 ], [ %22, %9 ]
  %29 = icmp eq i32 %4, 0
  br i1 %29, label %35, label %30

30:                                               ; preds = %25
  %31 = srem i32 %0, %28
  %32 = icmp eq i32 %31, 0
  %33 = zext i1 %32 to i32
  %34 = add nuw nsw i32 %27, %33
  br label %35

35:                                               ; preds = %25, %30
  %36 = phi i32 [ %26, %25 ], [ %34, %30 ]
  %37 = icmp eq i32 %36, 0
  %38 = zext i1 %37 to i32
  br label %39

39:                                               ; preds = %35, %1
  %40 = phi i32 [ 1, %1 ], [ %38, %35 ]
  ret i32 %40
}

; Function Attrs: argmemonly mustprogress nofree nosync nounwind willreturn
declare void @llvm.lifetime.start.p0i8(i64 immarg, i8* nocapture) #1

; Function Attrs: argmemonly mustprogress nofree nosync nounwind willreturn
declare void @llvm.lifetime.end.p0i8(i64 immarg, i8* nocapture) #1

; Function Attrs: nounwind sspstrong uwtable
define dso_local i32 @main() local_unnamed_addr #2 {
  %1 = alloca i32, align 4
  %2 = bitcast i32* %1 to i8*
  call void @llvm.lifetime.start.p0i8(i64 4, i8* nonnull %2) #6
  %3 = call i32 (i8*, ...) @__isoc99_scanf(i8* getelementptr inbounds ([3 x i8], [3 x i8]* @.str, i64 0, i64 0), i32* nonnull %1)
  %4 = load i32, i32* %1, align 4, !tbaa !7
  %5 = sext i32 %4 to i64
  %6 = shl nsw i64 %5, 2
  %7 = call noalias align 16 i8* @malloc(i64 %6) #6
  %8 = bitcast i8* %7 to i32*
  %9 = icmp slt i32 %4, 2
  br i1 %9, label %81, label %16

10:                                               ; preds = %59
  %11 = icmp sgt i32 %60, 1
  br i1 %11, label %12, label %81

12:                                               ; preds = %10
  %13 = add nsw i32 %60, -1
  %14 = zext i32 %13 to i64
  %15 = load i32, i32* %8, align 16, !tbaa !7
  br label %64

16:                                               ; preds = %0, %59
  %17 = phi i32 [ %63, %59 ], [ 0, %0 ]
  %18 = phi i32 [ %61, %59 ], [ 2, %0 ]
  %19 = phi i32 [ %60, %59 ], [ 0, %0 ]
  %20 = icmp ugt i32 %18, 2
  br i1 %20, label %21, label %55

21:                                               ; preds = %16
  %22 = and i32 %17, 1
  %23 = icmp eq i32 %17, 1
  br i1 %23, label %42, label %24

24:                                               ; preds = %21
  %25 = and i32 %17, -2
  br label %26

26:                                               ; preds = %26, %24
  %27 = phi i32 [ 0, %24 ], [ %38, %26 ]
  %28 = phi i32 [ 2, %24 ], [ %39, %26 ]
  %29 = phi i32 [ %25, %24 ], [ %40, %26 ]
  %30 = urem i32 %18, %28
  %31 = icmp eq i32 %30, 0
  %32 = zext i1 %31 to i32
  %33 = add nuw nsw i32 %27, %32
  %34 = or i32 %28, 1
  %35 = urem i32 %18, %34
  %36 = icmp eq i32 %35, 0
  %37 = zext i1 %36 to i32
  %38 = add nuw nsw i32 %33, %37
  %39 = add nuw nsw i32 %28, 2
  %40 = add i32 %29, -2
  %41 = icmp eq i32 %40, 0
  br i1 %41, label %42, label %26, !llvm.loop !5

42:                                               ; preds = %26, %21
  %43 = phi i32 [ undef, %21 ], [ %38, %26 ]
  %44 = phi i32 [ 0, %21 ], [ %38, %26 ]
  %45 = phi i32 [ 2, %21 ], [ %39, %26 ]
  %46 = icmp eq i32 %22, 0
  br i1 %46, label %52, label %47

47:                                               ; preds = %42
  %48 = urem i32 %18, %45
  %49 = icmp eq i32 %48, 0
  %50 = zext i1 %49 to i32
  %51 = add nuw nsw i32 %44, %50
  br label %52

52:                                               ; preds = %42, %47
  %53 = phi i32 [ %43, %42 ], [ %51, %47 ]
  %54 = icmp eq i32 %53, 0
  br i1 %54, label %55, label %59

55:                                               ; preds = %16, %52
  %56 = sext i32 %19 to i64
  %57 = getelementptr inbounds i32, i32* %8, i64 %56
  store i32 %18, i32* %57, align 4, !tbaa !7
  %58 = add nsw i32 %19, 1
  br label %59

59:                                               ; preds = %52, %55
  %60 = phi i32 [ %58, %55 ], [ %19, %52 ]
  %61 = add nuw i32 %18, 1
  %62 = icmp eq i32 %18, %4
  %63 = add i32 %17, 1
  br i1 %62, label %10, label %16, !llvm.loop !11

64:                                               ; preds = %12, %76
  %65 = phi i32 [ %15, %12 ], [ %70, %76 ]
  %66 = phi i64 [ 0, %12 ], [ %68, %76 ]
  %67 = phi i32 [ 0, %12 ], [ %77, %76 ]
  %68 = add nuw nsw i64 %66, 1
  %69 = getelementptr inbounds i32, i32* %8, i64 %68
  %70 = load i32, i32* %69, align 4, !tbaa !7
  %71 = sub nsw i32 %70, %65
  %72 = icmp eq i32 %71, 2
  br i1 %72, label %73, label %76

73:                                               ; preds = %64
  %74 = call i32 (i8*, ...) @printf(i8* nonnull dereferenceable(1) getelementptr inbounds ([7 x i8], [7 x i8]* @.str.1, i64 0, i64 0), i32 %65, i32 %70)
  %75 = add nsw i32 %67, 1
  br label %76

76:                                               ; preds = %64, %73
  %77 = phi i32 [ %75, %73 ], [ %67, %64 ]
  %78 = icmp eq i64 %68, %14
  br i1 %78, label %79, label %64, !llvm.loop !12

79:                                               ; preds = %76
  %80 = icmp eq i32 %77, 0
  br i1 %80, label %81, label %83

81:                                               ; preds = %0, %10, %79
  %82 = call i32 (i8*, ...) @printf(i8* nonnull dereferenceable(1) getelementptr inbounds ([6 x i8], [6 x i8]* @.str.2, i64 0, i64 0))
  br label %83

83:                                               ; preds = %81, %79
  call void @free(i8* %7) #6
  call void @llvm.lifetime.end.p0i8(i64 4, i8* nonnull %2) #6
  ret i32 0
}

; Function Attrs: nofree nounwind
declare noundef i32 @__isoc99_scanf(i8* nocapture noundef readonly, ...) local_unnamed_addr #3

; Function Attrs: inaccessiblememonly mustprogress nofree nounwind willreturn
declare noalias noundef align 16 i8* @malloc(i64 noundef) local_unnamed_addr #4

; Function Attrs: nofree nounwind
declare noundef i32 @printf(i8* nocapture noundef readonly, ...) local_unnamed_addr #3

; Function Attrs: inaccessiblemem_or_argmemonly mustprogress nounwind willreturn
declare void @free(i8* nocapture noundef) local_unnamed_addr #5


!llvm.module.flags = !{!0, !1, !2, !3}
!llvm.ident = !{!4}

!0 = !{i32 1, !"wchar_size", i32 4}
!1 = !{i32 7, !"PIC Level", i32 2}
!2 = !{i32 7, !"PIE Level", i32 2}
!3 = !{i32 7, !"uwtable", i32 1}
!4 = !{!"clang version 13.0.0"}
!5 = distinct !{!5, !6}
!6 = !{!"llvm.loop.mustprogress"}
!7 = !{!8, !8, i64 0}
!8 = !{!"int", !9, i64 0}
!9 = !{!"omnipotent char", !10, i64 0}
!10 = !{!"Simple C/C++ TBAA"}
!11 = distinct !{!11, !6}
!12 = distinct !{!12, !6}
